target datalayout = "e-m:e-p270:32:32-p271:32:32-p272:64:64-i64:64-i128:128-f80:128-n8:16:32:64-S128"
target triple = "x86_64-pc-linux-gnu"

; Function Attrs: nounwind uwtable
define internal i32 @do_cubic_bezier(i32 noundef %0, i32 noundef %1, i32 noundef %2, i32 noundef %3) #0 {
  %5 = alloca i32, align 4
  %6 = alloca i32, align 4
  %7 = alloca i32, align 4
  %8 = alloca i32, align 4
  %9 = alloca i32, align 4
  store i32 %0, ptr %5, align 4, !tbaa !7
  store i32 %1, ptr %6, align 4, !tbaa !7
  store i32 %2, ptr %7, align 4, !tbaa !7
  store i32 %3, ptr %8, align 4, !tbaa !7
  call void @llvm.lifetime.start.p0(i64 4, ptr %9) #2
  %10 = load i32, ptr %6, align 4, !tbaa !7
  store i32 %10, ptr %9, align 4, !tbaa !7
  %11 = load i32, ptr %9, align 4, !tbaa !7
  %12 = load i32, ptr %5, align 4, !tbaa !7
  %13 = mul nsw i32 %11, %12
  %14 = ashr i32 %13, 10
  store i32 %14, ptr %9, align 4, !tbaa !7
  %15 = load i32, ptr %9, align 4, !tbaa !7
  %16 = load i32, ptr %7, align 4, !tbaa !7
  %17 = add nsw i32 %15, %16
  %18 = load i32, ptr %5, align 4, !tbaa !7
  %19 = mul nsw i32 %17, %18
  %20 = ashr i32 %19, 10
  store i32 %20, ptr %9, align 4, !tbaa !7
  %21 = load i32, ptr %9, align 4, !tbaa !7
  %22 = load i32, ptr %8, align 4, !tbaa !7
  %23 = add nsw i32 %21, %22
  %24 = load i32, ptr %5, align 4, !tbaa !7
  %25 = mul nsw i32 %23, %24
  %26 = ashr i32 %25, 10
  store i32 %26, ptr %9, align 4, !tbaa !7
  %27 = load i32, ptr %9, align 4, !tbaa !7
  call void @llvm.lifetime.end.p0(i64 4, ptr %9) #2
  ret i32 %27
}

; Function Attrs: nounwind uwtable
define i32 @lv_cubic_bezier(i32 noundef %0, i32 noundef %1, i32 noundef %2, i32 noundef %3, i32 noundef %4) #0 {
  %6 = alloca i32, align 4
  %7 = alloca i32, align 4
  %8 = alloca i32, align 4
  %9 = alloca i32, align 4
  %10 = alloca i32, align 4
  %11 = alloca i32, align 4
  %12 = alloca i32, align 4
  %13 = alloca i32, align 4
  %14 = alloca i32, align 4
  %15 = alloca i32, align 4
  %16 = alloca i32, align 4
  %17 = alloca i32, align 4
  %18 = alloca i32, align 4
  %19 = alloca i32, align 4
  %20 = alloca i32, align 4
  %21 = alloca i32, align 4
  %22 = alloca i32, align 4
  %23 = alloca i32, align 4
  %24 = alloca i32, align 4
  store i32 %0, ptr %7, align 4, !tbaa !7
  store i32 %1, ptr %8, align 4, !tbaa !7
  store i32 %2, ptr %9, align 4, !tbaa !7
  store i32 %3, ptr %10, align 4, !tbaa !7
  store i32 %4, ptr %11, align 4, !tbaa !7
  call void @llvm.lifetime.start.p0(i64 4, ptr %12) #2
  call void @llvm.lifetime.start.p0(i64 4, ptr %13) #2
  call void @llvm.lifetime.start.p0(i64 4, ptr %14) #2
  call void @llvm.lifetime.start.p0(i64 4, ptr %15) #2
  call void @llvm.lifetime.start.p0(i64 4, ptr %16) #2
  call void @llvm.lifetime.start.p0(i64 4, ptr %17) #2
  call void @llvm.lifetime.start.p0(i64 4, ptr %18) #2
  call void @llvm.lifetime.start.p0(i64 4, ptr %19) #2
  call void @llvm.lifetime.start.p0(i64 4, ptr %20) #2
  call void @llvm.lifetime.start.p0(i64 4, ptr %21) #2
  call void @llvm.lifetime.start.p0(i64 4, ptr %22) #2
  %25 = load i32, ptr %7, align 4, !tbaa !7
  %26 = icmp eq i32 %25, 0
  br i1 %26, label %31, label %27

27:                                               ; preds = %5
  %28 = load i32, ptr %7, align 4, !tbaa !7
  %29 = sext i32 %28 to i64
  %30 = icmp eq i64 %29, 1024
  br i1 %30, label %31, label %33

31:                                               ; preds = %27, %5
  %32 = load i32, ptr %7, align 4, !tbaa !7
  store i32 %32, ptr %6, align 4
  store i32 1, ptr %23, align 4
  br label %204

33:                                               ; preds = %27
  %34 = load i32, ptr %8, align 4, !tbaa !7
  %35 = mul nsw i32 3, %34
  store i32 %35, ptr %14, align 4, !tbaa !7
  %36 = load i32, ptr %10, align 4, !tbaa !7
  %37 = load i32, ptr %8, align 4, !tbaa !7
  %38 = sub nsw i32 %36, %37
  %39 = mul nsw i32 3, %38
  %40 = load i32, ptr %14, align 4, !tbaa !7
  %41 = sub nsw i32 %39, %40
  store i32 %41, ptr %13, align 4, !tbaa !7
  %42 = load i32, ptr %14, align 4, !tbaa !7
  %43 = sext i32 %42 to i64
  %44 = sub nsw i64 1024, %43
  %45 = load i32, ptr %13, align 4, !tbaa !7
  %46 = sext i32 %45 to i64
  %47 = sub nsw i64 %44, %46
  %48 = trunc i64 %47 to i32
  store i32 %48, ptr %12, align 4, !tbaa !7
  %49 = load i32, ptr %9, align 4, !tbaa !7
  %50 = mul nsw i32 3, %49
  store i32 %50, ptr %17, align 4, !tbaa !7
  %51 = load i32, ptr %11, align 4, !tbaa !7
  %52 = load i32, ptr %9, align 4, !tbaa !7
  %53 = sub nsw i32 %51, %52
  %54 = mul nsw i32 3, %53
  %55 = load i32, ptr %17, align 4, !tbaa !7
  %56 = sub nsw i32 %54, %55
  store i32 %56, ptr %16, align 4, !tbaa !7
  %57 = load i32, ptr %17, align 4, !tbaa !7
  %58 = sext i32 %57 to i64
  %59 = sub nsw i64 1024, %58
  %60 = load i32, ptr %16, align 4, !tbaa !7
  %61 = sext i32 %60 to i64
  %62 = sub nsw i64 %59, %61
  %63 = trunc i64 %62 to i32
  store i32 %63, ptr %15, align 4, !tbaa !7
  %64 = load i32, ptr %7, align 4, !tbaa !7
  store i32 %64, ptr %20, align 4, !tbaa !7
  call void @llvm.lifetime.start.p0(i64 4, ptr %24) #2
  store i32 0, ptr %24, align 4, !tbaa !7
  br label %65

65:                                               ; preds = %131, %33
  %66 = load i32, ptr %24, align 4, !tbaa !7
  %67 = icmp slt i32 %66, 8
  br i1 %67, label %69, label %68

68:                                               ; preds = %65
  store i32 2, ptr %23, align 4
  br label %134

69:                                               ; preds = %65
  %70 = load i32, ptr %20, align 4, !tbaa !7
  %71 = load i32, ptr %12, align 4, !tbaa !7
  %72 = load i32, ptr %13, align 4, !tbaa !7
  %73 = load i32, ptr %14, align 4, !tbaa !7
  %74 = call i32 @do_cubic_bezier(i32 noundef %70, i32 noundef %71, i32 noundef %72, i32 noundef %73)
  %75 = load i32, ptr %7, align 4, !tbaa !7
  %76 = sub nsw i32 %74, %75
  store i32 %76, ptr %21, align 4, !tbaa !7
  %77 = load i32, ptr %21, align 4, !tbaa !7
  %78 = icmp sgt i32 %77, 0
  br i1 %78, label %79, label %81

79:                                               ; preds = %69
  %80 = load i32, ptr %21, align 4, !tbaa !7
  br label %84

81:                                               ; preds = %69
  %82 = load i32, ptr %21, align 4, !tbaa !7
  %83 = sub nsw i32 0, %82
  br label %84

84:                                               ; preds = %81, %79
  %85 = phi i32 [ %80, %79 ], [ %83, %81 ]
  %86 = icmp sle i32 %85, 1
  br i1 %86, label %87, label %88

87:                                               ; preds = %84
  store i32 5, ptr %23, align 4
  br label %134

88:                                               ; preds = %84
  %89 = load i32, ptr %12, align 4, !tbaa !7
  store i32 %89, ptr %22, align 4, !tbaa !7
  %90 = load i32, ptr %22, align 4, !tbaa !7
  %91 = mul nsw i32 3, %90
  %92 = load i32, ptr %20, align 4, !tbaa !7
  %93 = mul nsw i32 %91, %92
  %94 = ashr i32 %93, 10
  store i32 %94, ptr %22, align 4, !tbaa !7
  %95 = load i32, ptr %22, align 4, !tbaa !7
  %96 = load i32, ptr %13, align 4, !tbaa !7
  %97 = mul nsw i32 2, %96
  %98 = add nsw i32 %95, %97
  %99 = load i32, ptr %20, align 4, !tbaa !7
  %100 = mul nsw i32 %98, %99
  %101 = ashr i32 %100, 10
  store i32 %101, ptr %22, align 4, !tbaa !7
  %102 = load i32, ptr %14, align 4, !tbaa !7
  %103 = load i32, ptr %22, align 4, !tbaa !7
  %104 = add nsw i32 %103, %102
  store i32 %104, ptr %22, align 4, !tbaa !7
  %105 = load i32, ptr %22, align 4, !tbaa !7
  %106 = icmp sgt i32 %105, 0
  br i1 %106, label %107, label %109

107:                                              ; preds = %88
  %108 = load i32, ptr %22, align 4, !tbaa !7
  br label %112

109:                                              ; preds = %88
  %110 = load i32, ptr %22, align 4, !tbaa !7
  %111 = sub nsw i32 0, %110
  br label %112

112:                                              ; preds = %109, %107
  %113 = phi i32 [ %108, %107 ], [ %111, %109 ]
  %114 = icmp sle i32 %113, 1
  br i1 %114, label %115, label %116

115:                                              ; preds = %112
  store i32 2, ptr %23, align 4
  br label %134

116:                                              ; preds = %112
  %117 = load i32, ptr %21, align 4, !tbaa !7
  %118 = sext i32 %117 to i64
  %119 = mul nsw i64 %118, 1024
  %120 = load i32, ptr %22, align 4, !tbaa !7
  %121 = sext i32 %120 to i64
  %122 = sdiv i64 %119, %121
  %123 = trunc i64 %122 to i32
  store i32 %123, ptr %22, align 4, !tbaa !7
  %124 = load i32, ptr %22, align 4, !tbaa !7
  %125 = icmp eq i32 %124, 0
  br i1 %125, label %126, label %127

126:                                              ; preds = %116
  store i32 2, ptr %23, align 4
  br label %134

127:                                              ; preds = %116
  %128 = load i32, ptr %22, align 4, !tbaa !7
  %129 = load i32, ptr %20, align 4, !tbaa !7
  %130 = sub nsw i32 %129, %128
  store i32 %130, ptr %20, align 4, !tbaa !7
  br label %131

131:                                              ; preds = %127
  %132 = load i32, ptr %24, align 4, !tbaa !7
  %133 = add nsw i32 %132, 1
  store i32 %133, ptr %24, align 4, !tbaa !7
  br label %65, !llvm.loop !12

134:                                              ; preds = %87, %126, %115, %68
  call void @llvm.lifetime.end.p0(i64 4, ptr %24) #2
  %135 = load i32, ptr %23, align 4
  switch i32 %135, label %204 [
    i32 2, label %136
    i32 5, label %198
  ]

136:                                              ; preds = %134
  store i32 0, ptr %18, align 4, !tbaa !7
  store i32 1024, ptr %19, align 4, !tbaa !7
  %137 = load i32, ptr %7, align 4, !tbaa !7
  store i32 %137, ptr %20, align 4, !tbaa !7
  %138 = load i32, ptr %20, align 4, !tbaa !7
  %139 = load i32, ptr %18, align 4, !tbaa !7
  %140 = icmp slt i32 %138, %139
  br i1 %140, label %141, label %143

141:                                              ; preds = %136
  %142 = load i32, ptr %18, align 4, !tbaa !7
  store i32 %142, ptr %20, align 4, !tbaa !7
  br label %198

143:                                              ; preds = %136
  %144 = load i32, ptr %20, align 4, !tbaa !7
  %145 = load i32, ptr %19, align 4, !tbaa !7
  %146 = icmp sgt i32 %144, %145
  br i1 %146, label %147, label %149

147:                                              ; preds = %143
  %148 = load i32, ptr %19, align 4, !tbaa !7
  store i32 %148, ptr %20, align 4, !tbaa !7
  br label %198

149:                                              ; preds = %143
  br label %150

150:                                              ; preds = %196, %149
  %151 = load i32, ptr %18, align 4, !tbaa !7
  %152 = load i32, ptr %19, align 4, !tbaa !7
  %153 = icmp slt i32 %151, %152
  br i1 %153, label %154, label %197

154:                                              ; preds = %150
  %155 = load i32, ptr %20, align 4, !tbaa !7
  %156 = load i32, ptr %12, align 4, !tbaa !7
  %157 = load i32, ptr %13, align 4, !tbaa !7
  %158 = load i32, ptr %14, align 4, !tbaa !7
  %159 = call i32 @do_cubic_bezier(i32 noundef %155, i32 noundef %156, i32 noundef %157, i32 noundef %158)
  store i32 %159, ptr %21, align 4, !tbaa !7
  %160 = load i32, ptr %21, align 4, !tbaa !7
  %161 = load i32, ptr %7, align 4, !tbaa !7
  %162 = sub nsw i32 %160, %161
  %163 = icmp sgt i32 %162, 0
  br i1 %163, label %164, label %168

164:                                              ; preds = %154
  %165 = load i32, ptr %21, align 4, !tbaa !7
  %166 = load i32, ptr %7, align 4, !tbaa !7
  %167 = sub nsw i32 %165, %166
  br label %173

168:                                              ; preds = %154
  %169 = load i32, ptr %21, align 4, !tbaa !7
  %170 = load i32, ptr %7, align 4, !tbaa !7
  %171 = sub nsw i32 %169, %170
  %172 = sub nsw i32 0, %171
  br label %173

173:                                              ; preds = %168, %164
  %174 = phi i32 [ %167, %164 ], [ %172, %168 ]
  %175 = icmp sle i32 %174, 1
  br i1 %175, label %176, label %177

176:                                              ; preds = %173
  br label %198

177:                                              ; preds = %173
  %178 = load i32, ptr %7, align 4, !tbaa !7
  %179 = load i32, ptr %21, align 4, !tbaa !7
  %180 = icmp sgt i32 %178, %179
  br i1 %180, label %181, label %183

181:                                              ; preds = %177
  %182 = load i32, ptr %20, align 4, !tbaa !7
  store i32 %182, ptr %18, align 4, !tbaa !7
  br label %185

183:                                              ; preds = %177
  %184 = load i32, ptr %20, align 4, !tbaa !7
  store i32 %184, ptr %19, align 4, !tbaa !7
  br label %185

185:                                              ; preds = %183, %181
  %186 = load i32, ptr %19, align 4, !tbaa !7
  %187 = load i32, ptr %18, align 4, !tbaa !7
  %188 = sub nsw i32 %186, %187
  %189 = sdiv i32 %188, 2
  %190 = load i32, ptr %18, align 4, !tbaa !7
  %191 = add nsw i32 %189, %190
  store i32 %191, ptr %20, align 4, !tbaa !7
  %192 = load i32, ptr %20, align 4, !tbaa !7
  %193 = load i32, ptr %18, align 4, !tbaa !7
  %194 = icmp eq i32 %192, %193
  br i1 %194, label %195, label %196

195:                                              ; preds = %185
  br label %197

196:                                              ; preds = %185
  br label %150, !llvm.loop !13

197:                                              ; preds = %195, %150
  br label %198

198:                                              ; preds = %197, %134, %176, %147, %141
  %199 = load i32, ptr %20, align 4, !tbaa !7
  %200 = load i32, ptr %15, align 4, !tbaa !7
  %201 = load i32, ptr %16, align 4, !tbaa !7
  %202 = load i32, ptr %17, align 4, !tbaa !7
  %203 = call i32 @do_cubic_bezier(i32 noundef %199, i32 noundef %200, i32 noundef %201, i32 noundef %202)
  store i32 %203, ptr %6, align 4
  store i32 1, ptr %23, align 4
  br label %204

204:                                              ; preds = %198, %134, %31
  call void @llvm.lifetime.end.p0(i64 4, ptr %22) #2
  call void @llvm.lifetime.end.p0(i64 4, ptr %21) #2
  call void @llvm.lifetime.end.p0(i64 4, ptr %20) #2
  call void @llvm.lifetime.end.p0(i64 4, ptr %19) #2
  call void @llvm.lifetime.end.p0(i64 4, ptr %18) #2
  call void @llvm.lifetime.end.p0(i64 4, ptr %17) #2
  call void @llvm.lifetime.end.p0(i64 4, ptr %16) #2
  call void @llvm.lifetime.end.p0(i64 4, ptr %15) #2
  call void @llvm.lifetime.end.p0(i64 4, ptr %14) #2
  call void @llvm.lifetime.end.p0(i64 4, ptr %13) #2
  call void @llvm.lifetime.end.p0(i64 4, ptr %12) #2
  %205 = load i32, ptr %6, align 4
  ret i32 %205
}