; Function Attrs: nofree norecurse nosync nounwind memory(none) uwtable
define range(i32 -2097152, 2097152) i32 @lv_cubic_bezier(i32 noundef %0, i32 noundef %1, i32 noundef %2, i32 noundef %3, i32 noundef %4) local_unnamed_addr #1 {
  %6 = and i32 %0, -1025
  %or.cond = icmp eq i32 %6, 0
  br i1 %or.cond, label %84, label %7

7:                                                ; preds = %5
  %8 = mul nsw i32 %1, 3
  %9 = shl i32 %1, 1
  %10 = sub i32 %3, %9
  %11 = mul i32 %10, 3
  %12 = add i32 %8, %11
  %13 = sub i32 1024, %12
  %14 = mul nsw i32 %2, 3
  %15 = shl i32 %2, 1
  %16 = sub i32 %4, %15
  %17 = mul i32 %16, 3
  %18 = add i32 %14, %17
  %19 = sub i32 1024, %18
  %20 = mul nsw i32 %13, 3
  %21 = mul i32 %10, 6
  br label %22

22:                                               ; preds = %7, %50
  %.0100 = phi i32 [ 0, %7 ], [ %52, %50 ]
  %.07999 = phi i32 [ %0, %7 ], [ %51, %50 ]
  %23 = mul nsw i32 %.07999, %13
  %24 = ashr i32 %23, 10
  %25 = add nsw i32 %24, %11
  %26 = mul nsw i32 %25, %.07999
  %27 = ashr i32 %26, 10
  %28 = add nsw i32 %27, %8
  %29 = mul nsw i32 %28, %.07999
  %30 = ashr i32 %29, 10
  %31 = sub nsw i32 %30, %0
  %32 = tail call i32 @llvm.abs.i32(i32 %31, i1 true)
  %33 = icmp samesign ult i32 %32, 2
  br i1 %33, label %.loopexit, label %34

34:                                               ; preds = %22
  %35 = mul nsw i32 %20, %.07999
  %36 = ashr i32 %35, 10
  %37 = add nsw i32 %36, %21
  %38 = mul nsw i32 %37, %.07999
  %39 = ashr i32 %38, 10
  %40 = add nsw i32 %39, %8
  %41 = tail call i32 @llvm.abs.i32(i32 %40, i1 true)
  %42 = icmp samesign ult i32 %41, 2
  br i1 %42, label %53, label %43

43:                                               ; preds = %34
  %44 = sext i32 %31 to i64
  %45 = shl nsw i64 %44, 10
  %46 = sext i32 %40 to i64
  %47 = sdiv i64 %45, %46
  %48 = trunc i64 %47 to i32
  %49 = icmp eq i32 %48, 0
  br i1 %49, label %53, label %50

50:                                               ; preds = %43
  %51 = sub nsw i32 %.07999, %48
  %52 = add nuw nsw i32 %.0100, 1
  %exitcond.not = icmp eq i32 %52, 8
  br i1 %exitcond.not, label %53, label %22, !llvm.loop !7

53:                                               ; preds = %50, %34, %43
  %54 = icmp slt i32 %0, 0
  br i1 %54, label %.loopexit, label %55

55:                                               ; preds = %53
  %56 = icmp ugt i32 %0, 1024
  br i1 %56, label %.loopexit, label %.preheader

.preheader:                                       ; preds = %55, %70
  %.082 = phi i32 [ %.2..082, %70 ], [ 0, %55 ]
  %.080 = phi i32 [ %.080..2, %70 ], [ 1024, %55 ]
  %.2 = phi i32 [ %74, %70 ], [ %0, %55 ]
  %57 = icmp slt i32 %.082, %.080
  br i1 %57, label %58, label %.loopexit

58:                                               ; preds = %.preheader
  %59 = mul nsw i32 %.2, %13
  %60 = ashr i32 %59, 10
  %61 = add nsw i32 %60, %11
  %62 = mul nsw i32 %61, %.2
  %63 = ashr i32 %62, 10
  %64 = add nsw i32 %63, %8
  %65 = mul nsw i32 %64, %.2
  %66 = ashr i32 %65, 10
  %67 = sub nsw i32 %66, %0
  %68 = tail call i32 @llvm.abs.i32(i32 %67, i1 true)
  %69 = icmp samesign ult i32 %68, 2
  br i1 %69, label %.loopexit, label %70

70:                                               ; preds = %58
  %71 = icmp sgt i32 %0, %66
  %.2..082 = select i1 %71, i32 %.2, i32 %.082
  %.080..2 = select i1 %71, i32 %.080, i32 %.2
  %72 = sub nsw i32 %.080..2, %.2..082
  %73 = sdiv i32 %72, 2
  %74 = add nsw i32 %73, %.2..082
  %.off = add i32 %72, 1
  %75 = icmp ult i32 %.off, 3
  br i1 %75, label %.loopexit, label %.preheader, !llvm.loop !9

.loopexit:                                        ; preds = %22, %.preheader, %70, %58, %55, %53
  %.1 = phi i32 [ 0, %53 ], [ 1024, %55 ], [ %.2, %.preheader ], [ %74, %70 ], [ %.2, %58 ], [ %.07999, %22 ]
  %76 = mul nsw i32 %.1, %19
  %77 = ashr i32 %76, 10
  %78 = add nsw i32 %77, %17
  %79 = mul nsw i32 %78, %.1
  %80 = ashr i32 %79, 10
  %81 = add nsw i32 %80, %14
  %82 = mul nsw i32 %81, %.1
  %83 = ashr i32 %82, 10
  br label %84

84:                                               ; preds = %5, %.loopexit
  %.084 = phi i32 [ %83, %.loopexit ], [ %0, %5 ]
  ret i32 %.084
}